Certificate:
    Data:
        Version: 3 (0x2)
        Serial Number: 1 (0x1)
    Signature Algorithm: sha256WithRSAEncryption
        Issuer: C=CN, ST=SICHUAN, L=CHENGDU, O=ORG, OU=ORG
        Validity
            Not Before: Mar 28 03:34:26 2019 GMT
            Not After : Mar 27 03:34:26 2020 GMT
        Subject: C=CN, ST=SICHUAN, O=ORG, OU=ORG, CN=XIA/emailAddress=1234
        Subject Public Key Info:
            Public Key Algorithm: rsaEncryption
                Public-Key: (1024 bit)
                Modulus:
                    00:ba:84:3f:4b:e7:94:1b:5f:ab:5c:df:49:35:da:
                    fc:c3:eb:5e:75:06:57:24:39:a5:f8:98:61:30:03:
                    3c:59:bc:97:ff:0e:2e:06:0a:2c:89:ec:70:63:3e:
                    b3:5b:15:7b:0f:79:38:2d:68:ce:de:ab:da:ba:49:
                    60:aa:50:0c:37:e5:52:21:4f:d7:48:d3:14:a2:f2:
                    ca:96:84:88:f6:67:6e:43:99:9c:8b:ef:55:10:07:
                    a6:a8:4a:63:72:cb:18:88:a6:55:19:38:65:74:bf:
                    c6:76:69:db:44:78:fb:88:14:35:c2:b4:73:64:da:
                    c6:4f:9c:a9:5f:54:a1:26:d9
                Exponent: 65537 (0x10001)
        X509v3 extensions:
            X509v3 Basic Constraints: 
                CA:FALSE
            Netscape Comment: 
                OpenSSL Generated Certificate
            X509v3 Subject Key Identifier: 
                B2:85:ED:5E:69:96:BD:97:E1:A8:B7:E0:FB:B7:B8:DD:11:03:F3:AD
            X509v3 Authority Key Identifier: 
                keyid:5C:D1:1F:E8:1E:A2:35:1C:1E:5D:D2:34:5C:81:68:6A:B1:CC:15:D9

    Signature Algorithm: sha256WithRSAEncryption
         e3:a7:fd:b9:cf:aa:34:7a:f8:39:d1:3d:5f:47:1c:f5:5a:f2:
         8f:7a:c8:37:97:53:f8:44:a9:49:ce:d6:a2:6f:22:ae:1f:9f:
         25:e2:58:f4:84:73:6a:72:27:43:be:29:18:5a:62:a1:f0:68:
         17:c2:7c:a4:68:5b:04:46:7e:d7:30:c1:29:d7:e9:ce:9d:ec:
         3b:10:ae:a6:eb:35:25:4c:2b:03:0c:57:69:42:9c:93:7b:e3:
         a0:74:39:08:bb:02:13:9f:bf:99:cd:c2:cf:ac:50:8f:a7:39:
         2a:b7:c2:6e:43:a4:21:b6:5d:f7:0b:e4:e2:f5:3a:54:59:77:
         0d:e0
-----BEGIN CERTIFICATE-----
MIICnDCCAgWgAwIBAgIBATANBgkqhkiG9w0BAQsFADBNMQswCQYDVQQGEwJDTjEQ
MA4GA1UECAwHU0lDSFVBTjEQMA4GA1UEBwwHQ0hFTkdEVTEMMAoGA1UECgwDT1JH
MQwwCgYDVQQLDANPUkcwHhcNMTkwMzI4MDMzNDI2WhcNMjAwMzI3MDMzNDI2WjBe
MQswCQYDVQQGEwJDTjEQMA4GA1UECAwHU0lDSFVBTjEMMAoGA1UECgwDT1JHMQww
CgYDVQQLDANPUkcxDDAKBgNVBAMMA1hJQTETMBEGCSqGSIb3DQEJARYEMTIzNDCB
nzANBgkqhkiG9w0BAQEFAAOBjQAwgYkCgYEAuoQ/S+eUG1+rXN9JNdr8w+tedQZX
JDml+JhhMAM8WbyX/w4uBgosiexwYz6zWxV7D3k4LWjO3qvauklgqlAMN+VSIU/X
SNMUovLKloSI9mduQ5mci+9VEAemqEpjcssYiKZVGThldL/GdmnbRHj7iBQ1wrRz
ZNrGT5ypX1ShJtkCAwEAAaN7MHkwCQYDVR0TBAIwADAsBglghkgBhvhCAQ0EHxYd
T3BlblNTTCBHZW5lcmF0ZWQgQ2VydGlmaWNhdGUwHQYDVR0OBBYEFLKF7V5plr2X
4ai34Pu3uN0RA/OtMB8GA1UdIwQYMBaAFFzRH+geojUcHl3SNFyBaGqxzBXZMA0G
CSqGSIb3DQEBCwUAA4GBAOOn/bnPqjR6+DnRPV9HHPVa8o96yDeXU/hEqUnO1qJv
Iq4fnyXiWPSEc2pyJ0O+KRhaYqHwaBfCfKRoWwRGftcwwSnX6c6d7DsQrqbrNSVM
KwMMV2lCnJN746B0OQi7AhOfv5nNws+sUI+nOSq3wm5DpCG2XfcL5OL1OlRZdw3g
-----END CERTIFICATE-----
