Certificate:
    Data:
        Version: 3 (0x2)
        Serial Number: 2 (0x2)
    Signature Algorithm: sha256WithRSAEncryption
        Issuer: C=CN, ST=SICHUAN, L=CHENGDU, O=ORG, OU=ORG
        Validity
            Not Before: Mar 28 03:38:46 2019 GMT
            Not After : Mar 27 03:38:46 2020 GMT
        Subject: C=CN, ST=SICHUAN, O=ORG, OU=ORG, CN=YANG/emailAddress=1234
        Subject Public Key Info:
            Public Key Algorithm: rsaEncryption
                Public-Key: (1024 bit)
                Modulus:
                    00:b4:14:5b:17:59:56:f0:c4:94:ec:87:d6:2e:c5:
                    8c:97:bd:ee:a1:bb:0f:7a:3d:cb:06:e5:52:05:1a:
                    eb:a5:22:b8:8c:66:5f:03:10:85:02:2f:61:f6:62:
                    88:93:0c:f4:50:04:96:e7:a7:27:da:8d:8a:70:5c:
                    64:6a:86:4c:4c:57:d0:23:0e:94:23:cb:c3:6d:49:
                    85:23:dd:6f:f0:f4:6c:13:72:70:67:e3:8f:0d:dc:
                    1c:c2:1c:74:36:03:84:05:3e:57:c3:71:01:85:7d:
                    96:32:0e:62:19:66:31:b6:17:26:24:86:2f:ae:a6:
                    89:31:9b:ec:b8:8b:b2:18:3d
                Exponent: 65537 (0x10001)
        X509v3 extensions:
            X509v3 Basic Constraints: 
                CA:FALSE
            Netscape Comment: 
                OpenSSL Generated Certificate
            X509v3 Subject Key Identifier: 
                CD:C3:04:E9:06:21:EB:31:9E:BB:50:37:C9:E2:64:1E:DF:B3:16:E4
            X509v3 Authority Key Identifier: 
                keyid:5C:D1:1F:E8:1E:A2:35:1C:1E:5D:D2:34:5C:81:68:6A:B1:CC:15:D9

    Signature Algorithm: sha256WithRSAEncryption
         3d:ba:ef:b0:f9:73:61:56:17:85:67:ea:8d:86:65:55:81:ff:
         ef:f2:5d:c1:c5:b9:ab:f9:0b:d3:c5:eb:4c:d3:9e:91:6f:ea:
         a9:d9:7b:9d:a3:1b:21:8b:6c:6c:25:d8:03:c4:85:c0:89:df:
         98:82:ab:64:85:ac:03:45:13:10:f4:90:17:c0:92:28:15:28:
         55:24:39:49:d8:75:88:2a:57:61:8e:fd:ea:bc:03:f7:fc:24:
         27:75:e4:05:7b:68:cb:fb:fc:ec:1d:41:4d:4e:f8:2c:ba:09:
         4d:a3:6f:83:19:64:75:bf:96:da:1e:61:ad:1d:e3:75:5e:c6:
         d1:85
-----BEGIN CERTIFICATE-----
MIICnTCCAgagAwIBAgIBAjANBgkqhkiG9w0BAQsFADBNMQswCQYDVQQGEwJDTjEQ
MA4GA1UECAwHU0lDSFVBTjEQMA4GA1UEBwwHQ0hFTkdEVTEMMAoGA1UECgwDT1JH
MQwwCgYDVQQLDANPUkcwHhcNMTkwMzI4MDMzODQ2WhcNMjAwMzI3MDMzODQ2WjBf
MQswCQYDVQQGEwJDTjEQMA4GA1UECAwHU0lDSFVBTjEMMAoGA1UECgwDT1JHMQww
CgYDVQQLDANPUkcxDTALBgNVBAMMBFlBTkcxEzARBgkqhkiG9w0BCQEWBDEyMzQw
gZ8wDQYJKoZIhvcNAQEBBQADgY0AMIGJAoGBALQUWxdZVvDElOyH1i7FjJe97qG7
D3o9ywblUgUa66UiuIxmXwMQhQIvYfZiiJMM9FAEluenJ9qNinBcZGqGTExX0CMO
lCPLw21JhSPdb/D0bBNycGfjjw3cHMIcdDYDhAU+V8NxAYV9ljIOYhlmMbYXJiSG
L66miTGb7LiLshg9AgMBAAGjezB5MAkGA1UdEwQCMAAwLAYJYIZIAYb4QgENBB8W
HU9wZW5TU0wgR2VuZXJhdGVkIENlcnRpZmljYXRlMB0GA1UdDgQWBBTNwwTpBiHr
MZ67UDfJ4mQe37MW5DAfBgNVHSMEGDAWgBRc0R/oHqI1HB5d0jRcgWhqscwV2TAN
BgkqhkiG9w0BAQsFAAOBgQA9uu+w+XNhVheFZ+qNhmVVgf/v8l3Bxbmr+QvTxetM
056Rb+qp2Xudoxshi2xsJdgDxIXAid+YgqtkhawDRRMQ9JAXwJIoFShVJDlJ2HWI
Kldhjv3qvAP3/CQndeQFe2jL+/zsHUFNTvgsuglNo2+DGWR1v5baHmGtHeN1XsbR
hQ==
-----END CERTIFICATE-----
